(lp1
(dp2
Vtitle
p3
VOne corner of the real-estate market might've peaked
p4
sa(dp5
Vtitle
p6
VChina is tightening its grip on the world's commodities markets
p7
sa(dp8
Vtitle
p9
VHomebuilders are raking it in because it's more expensive for you to buy a house
p10
sa(dp11
Vtitle
p12
VGARY SHILLING: The failed Doha meeting is proof that oil is still headed for $10
p13
sa(dp14
Vtitle
p15
VStocks are slightly lower (SPY, SPX, DJI, IXIC, JPY, USD, DXY, MCD, MFST, CAT, USO, WTI, OIL, VDE)
p16
sa(dp17
Vtitle
p18
VHere comes the Baker Hughes rig count ... (USO, WTI, OIL, VDE)
p19
sa(dp20
Vtitle
p21
VOil is heading towards another crash
p22
sa(dp23
Vtitle
p24
VOil is heading towards another crash
p25
sa(dp26
Vtitle
p27
VStocks are going nowhere
p28
sa(dp29
Vtitle
p30
VHere comes Markit manufacturing PMI ...
p31
sa(dp32
Vtitle
p33
VMcDonald's beats big on earnings, thanks to all-day breakfast
p34
sa(dp35
Vtitle
p36
VMcDonald's beats big on earnings
p37
sa(dp38
Vtitle
p39
VMcDonald's beats big on earnings
p40
sa(dp41
Vtitle
p42
VHomebuilders are raking it in because it's more expensive for you to buy a house
p43
sa(dp44
Vtitle
p45
VCaterpillar whiffs on earnings and slashes its forecast for the year
p46
sa(dp47
Vtitle
p48
VCaterpillar whiffs on earnings and slashes forecast for the year
p49
sa(dp50
Vtitle
p51
VSCHLUMBERGER: The oil industry will continue to deteriorate
p52
sa(dp53
Vtitle
p54
VSCHLUMBERGER: The oil industry will continue to deteriorate
p55
sa(dp56
Vtitle
p57
VHere are the best ways to reap huge returns when stocks are going nowhere
p58
sa(dp59
Vtitle
p60
VMore ugly news about the global economy
p61
sa(dp62
Vtitle
p63
VHome prices rise as expected in February
p64
sa(dp65
Vtitle
p66
VHere come home prices ...
p67
sa(dp68
Vtitle
p69
VPhilly Fed manufacturing falls back into the red
p70
sa(dp71
Vtitle
p72
VVerizon's earnings show cable subscriptions are still plunging
p73
sa(dp74
Vtitle
p75
VHere's a super quick guide to what traders are talking about right now (SPY, SPX, DJI, IXIC, USO, WTI, OIL, VDE)
p76
sa(dp77
Vtitle
p78
VAmerican Express beats big on earnings, shares jump
p79
sa(dp80
Vtitle
p81
VAmerican Express crushes earnings expectations, shares jump
p82
sa(dp83
Vtitle
p84
VBad news for Dennis Gartman ...
p85
sa(dp86
Vtitle
p87
VBad news for Dennis Gartman ...
p88
sa(dp89
Vtitle
p90
VOne corner of the real estate market might've peaked
p91
sa(dp92
Vtitle
p93
VSan Francisco's homebuyers just got some great news
p94
sa(dp95
Vtitle
p96
VHere come existing home sales ...
p97
sa(dp98
Vtitle
p99
VCoca-Cola earnings beat, sales slide 4%
p100
sa(dp101
Vtitle
p102
VHere's a super quick guide to what traders are talking about right now (SPY, DJI, IXIC, USO, WTI, OIL, VDE, KO, AXP, INTC)
p103
sa(dp104
Vtitle
p105
VStocks are hitting new highs of the year
p106
sa(dp107
Vtitle
p108
VHere's what Wall Street is saying about Netflix's disappointing forecast and stock plunge
p109
sa(dp110
Vtitle
p111
VHere come housing starts ...
p112
sa(dp113
Vtitle
p114
VHere's a super quick guide to what traders are talking about right now
p115
sa(dp116
Vtitle
p117
VHarley-Davidson shares are soaring after earnings beat
p118
sa(dp119
Vtitle
p120
VChina is tightening its grip on the world's commodities markets
p121
sa(dp122
Vtitle
p123
VChina is tightening its grip on the world's commodities markets
p124
sa(dp125
Vtitle
p126
VNAHB homebuilder sentiment misses expectations
p127
sa(dp128
Vtitle
p129
VNAHB homebuilder sentiment misses expectations
p130
sa(dp131
Vtitle
p132
VFutures are lower (MS, SPY, DJI, IXIC, USO, WTI, OIL, VDE, BNO)
p133
sa(dp134
Vtitle
p135
VGARY SHILLING: The failed Doha meeting is proof that oil is still headed for $10
p136
sa(dp137
Vtitle
p138
VHere's a super quick guide to what traders are talking about right now (SPY, DJI, IXIC, USO, WTI, OIL, VDE)
p139
sa(dp140
Vtitle
p141
VCrude oil plunges after producers' meeting in Doha flops
p142
sa(dp143
Vtitle
p144
VCrude oil plunges after producers' meeting in Doha flops
p145
sa(dp146
Vtitle
p147
VCrude oil is getting smoked
p148
sa(dp149
Vtitle
p150
VThe world's largest investor says negative rates are breeding a disaster for the economy
p151
sa(dp152
Vtitle
p153
VHome prices in San Francisco just fell for the first time in 4 years
p154
sa(dp155
Vtitle
p156
VBAML: Everyone is way too bearish
p157
sa(dp158
Vtitle
p159
VSan Francisco's housing market is at a tipping point
p160
sa(dp161
Vtitle
p162
VOil rig count falls for a 4th straight week
p163
sa(dp164
Vtitle
p165
VHere comes the Baker Hughes rig count ... (USO, WTI, OIL, VDE)
p166
sa(dp167
Vtitle
p168
VHere comes consumer confidence ...
p169
sa(dp170
Vtitle
p171
VIndustrial production falls more than expected
p172
sa(dp173
Vtitle
p174
VHere comes industrial production ...
p175
sa(dp176
Vtitle
p177
VHere comes Empire State manufacturing ...
p178
sa(dp179
Vtitle
p180
VHere comes the Bats IPO ...
p181
sa(dp182
Vtitle
p183
VHere's a super quick guide to what traders are talking about right now (SPY, SPX, DJI, IXIC, USO, WTI, OIL)
p184
sa(dp185
Vtitle
p186
VSeagate is tanking after cutting its sales forecast
p187
sa(dp188
Vtitle
p189
VJPMorgan thinks Chipotle's food crisis is almost over
p190
sa(dp191
Vtitle
p192
VStocks are going nowhere
p193
sa(dp194
Vtitle
p195
VInflation rises less than expected in March
p196
sa(dp197
Vtitle
p198
VHere comes CPI ...
p199
sa(dp200
Vtitle
p201
VHome prices in San Francisco just fell for the first time in 4 years
p202
sa(dp203
Vtitle
p204
VHere's a super quick guide to what traders are talking about right now
p205
sa(dp206
Vtitle
p207
VDelta beats on earnings, shares jump 3%
p208
sa(dp209
Vtitle
p210
VDelta beats on earnings
p211
sa(dp212
Vtitle
p213
VSTOCKS HIT 2016 HIGHS: Here's what you need to know
p214
sa(dp215
Vtitle
p216
VHere comes the Beige Book ...
p217
sa(dp218
Vtitle
p219
VStocks are rallying
p220
sa(dp221
Vtitle
p222
VThese 15 features sell homes the fastest and at the best possible price
p223
sa(dp224
Vtitle
p225
VHere come retail sales ...
p226
sa(dp227
Vtitle
p228
VHere's a super quick guide to what traders are talking about right now (SPY, SPX, DJI, IXIC, JPY, CNY, DXY, TLT, TLO)
p229
sa(dp230
Vtitle
p231
VCrude oil pops on report that Saudi Arabia and Russia have agreed to freeze production
p232
sa(dp233
Vtitle
p234
VCrude oil pops on report that Saudi Arabia and Russia have agreed to freeze production
p235
sa(dp236
Vtitle
p237
VDeutsche Bank just downgraded Starbucks because of its new loyalty program
p238
sa(dp239
Vtitle
p240
VThe New York Fed has unveiled a hot new forecasting tool for the US economy
p241
sa(dp242
Vtitle
p243
VHere's a super quick guide to what traders are talking about right now (SPY, SPX, DJI, IXIC, USO, WTI, OIL, VDE, BNO, DXY, USD, TLT, TLO, AA, JNPR)
p244
sa(dp245
Vtitle
p246
VFitch just downgraded Saudi Arabia
p247
sa(dp248
Vtitle
p249
VFitch just downgraded Saudi Arabia
p250
sa(dp251
Vtitle
p252
VFitch just downgraded Saudi Arabia
p253
sa(dp254
Vtitle
p255
VHere comes Alcoa ...
p256
sa(dp257
Vtitle
p258
VThere's an interesting reason why the Fed might not be able to hike rates in 2016
p259
sa(dp260
Vtitle
p261
VHertz cut its revenue guidance because there are too many cars
p262
sa(dp263
Vtitle
p264
VThe world's largest investor says negative rates are breeding a disaster for the economy
p265
sa(dp266
Vtitle
p267
VFutures are rallying
p268
sa(dp269
Vtitle
p270
VBAML: Everyone is way too bearish
p271
sa(dp272
Vtitle
p273
VHere's a super quick guide to what traders are talking about right now (SPY, DJI, IXIC, AA, USD, TLT, TLO, DXY)
p274
sa(dp275
Vtitle
p276
VEARNINGS SEASON IS HERE: Your full preview of this week's big economic events
p277
sa(dp278
Vtitle
p279
VEARNINGS SEASON IS HERE: Your full preview of this week's big economic events
p280
sa(dp281
Vtitle
p282
VMORGAN STANLEY: Now things look even worse for Twitter
p283
sa(dp284
Vtitle
p285
VStandby for terrible news from Wall Street ...
p286
sa(dp287
Vtitle
p288
VMORGAN STANLEY: Acting like a cockroach has been the best strategy in the stock market this year
p289
sa(dp290
Vtitle
p291
VSTOCKS FALL INTO THE CLOSE: Here's what you need to know
p292
sa(dp293
Vtitle
p294
VHere comes the Baker Hughes rig count ...
p295
sa(dp296
Vtitle
p297
VIt looks like the US economy almost shrank in the first quarter
p298
sa(dp299
Vtitle
p300
VIt looks like the US economy almost shrank in the first quarter
p301
sa(dp302
Vtitle
p303
VUnder Armour is down 48%, but not really
p304
sa(dp305
Vtitle
p306
VUnder Armour is down 48%, but not really
p307
sa(dp308
Vtitle
p309
VUnder Armour is down 48%, but not really
p310
sa(dp311
Vtitle
p312
VStocks and crude oil are rallying
p313
sa(dp314
Vtitle
p315
VFutures and crude oil are rallying
p316
sa(dp317
Vtitle
p318
VFormer Fed president pours cold water all over everything the Fed is trying to do right now
p319
sa(dp320
Vtitle
p321
VHere's a super quick guide to what traders are talking about right now (SPY, SPX, DJI, IXIC)
p322
sa(dp323
Vtitle
p324
VGap is down 10% after reporting horrible sales in March
p325
sa(dp326
Vtitle
p327
VStocks are getting pummeled
p328
sa(dp329
Vtitle
p330
VStocks are getting pummeled
p331
sa(dp332
Vtitle
p333
VStocks are getting pummeled
p334
sa(dp335
Vtitle
p336
VInitial jobless claims drop more than expected
p337
sa(dp338
Vtitle
p339
VInitial jobless claims drop more than expected
p340
sa(dp341
Vtitle
p342
VHere come initial jobless claims ...
p343
sa(dp344
Vtitle
p345
VMORGAN STANLEY: Now things look even worse for Twitter
p346
sa(dp347
Vtitle
p348
VHere's a super quick guide to what traders are talking about right now
p349
sa(dp350
Vtitle
p351
VSTOCKS RALLY, OIL SURGES: Here's what you need to know
p352
sa(dp353
Vtitle
p354
VSTOCKS RALLY: Here's what you need to know
p355
sa(dp356
Vtitle
p357
VHere come the Fed minutes ...
p358
sa(dp359
Vtitle
p360
VThe Department of Justice is suing to block Halliburton from buying Baker Hughes
p361
sa(dp362
Vtitle
p363
VThe Department of Justice is suing to block Halliburton from buying Baker Hughes
p364
sa(dp365
Vtitle
p366
VFutures are rising from the steepest drop in recent days
p367
sa(dp368
Vtitle
p369
VHere's a super quick guide to what traders are talking about right now (SPY, SPX, DJI, IXIC, USO, WTI, OIL, VDE)
p370
sa(dp371
Vtitle
p372
VOBAMA: 'Let's stop rewarding companies that are shipping jobs overseas'
p373
sa(dp374
Vtitle
p375
VMarkit services PMI rises more than expected
p376
sa(dp377
Vtitle
p378
VHere comes Markit services PMI ...
p379
sa(dp380
Vtitle
p381
VTOM LEE: Stocks will hit all-time highs by the summer
p382
sa(dp383
Vtitle
p384
VTrade deficit balloons in February
p385
sa(dp386
Vtitle
p387
VHere comes the trade balance ...
p388
sa(dp389
Vtitle
p390
VFutures are under pressure
p391
sa(dp392
Vtitle
p393
VHere's a super quick guide to what traders are talking about right now
p394
sa(dp395
Vtitle
p396
VWalgreens beats earnings expectations, revenues whiff
p397
sa(dp398
Vtitle
p399
VOne of Disney's top executives is leaving the company after 26 years
p400
sa(dp401
Vtitle
p402
VOne of Disney's most senior executives is leaving the company after 26 years
p403
sa(dp404
Vtitle
p405
VOne of Disney's most senior executives is leaving the company
p406
sa(dp407
Vtitle
p408
VA homebuilder is getting whacked after its founder pushed out the CEO
p409
sa(dp410
Vtitle
p411
VMORGAN STANLEY: The best strategy in the stock market this year has been to act like a cockroach
p412
sa(dp413
Vtitle
p414
VFED'S ROSENGREN: These 5 charts show how the market is wrong about interest rates
p415
sa(dp416
Vtitle
p417
VFED'S ROSENGREN: These 4 charts explain why the market is wrong about interest rates
p418
sa(dp419
Vtitle
p420
VHere come factory orders ...
p421
sa(dp422
Vtitle
p423
VHere's a super quick guide to what traders are talking about right now (SPY, SPX, DJI, IXIC)
p424
sa(dp425
Vtitle
p426
VFutures are a little higher ahead of the market open
p427
sa(dp428
Vtitle
p429
VAlaska Airlines is buying Virgin America for $4 billion after outbidding JetBlue
p430
sa(dp431
Vtitle
p432
VAlaska Air is buying Virgin America for $4 billion
p433
sa(dp434
Vtitle
p435
VCREDIT SUISSE: Everyone else on Wall Street is dead wrong about these 21 stocks
p436
sa(dp437
Vtitle
p438
VThere\u2019s a huge threat to the most remarkable thing about the US labor market right now
p439
sa(dp440
Vtitle
p441
VAmerica's 2nd-largest homebuilder outlines why the housing crisis is good news
p442
sa(dp443
Vtitle
p444
VOil rig count falls by 10
p445
sa(dp446
Vtitle
p447
VHere comes the Baker Hughes rig count ...
p448
sa(dp449
Vtitle
p450
VFutures are getting slammed after the jobs report
p451
sa(dp452
Vtitle
p453
VHere comes Markit manufacturing PMI ...
p454
sa(dp455
Vtitle
p456
VFutures are getting slammed after the jobs report
p457
sa(dp458
Vtitle
p459
VHere comes the jobs report ...
p460
sa(dp461
Vtitle
p462
VHere's a quick guide to what traders are talking about ahead of the jobs report
p463
sa(dp464
Vtitle
p465
VHere come auto sales ...
p466
sa(dp467
Vtitle
p468
VThis is one of the biggest days in the US economy that we can remember
p469
sa(dp470
Vtitle
p471
VSunEdison just disclosed that the Feds want more information about the deal that ruined everything
p472
sa(dp473
Vtitle
p474
VSunEdison says it got a subpoena from the Department of Justice
p475
sa(dp476
Vtitle
p477
VCorn is getting crushed
p478
sa(dp479
Vtitle
p480
VHere's your quick guide to Friday's jobs report
p481
sa(dp482
Vtitle
p483
VA pipeline company laid out its worst-case scenario, and now the stock is getting whacked
p484
sa(dp485
Vtitle
p486
VChicago PMI rises more than expected
p487
sa(dp488
Vtitle
p489
VHere comes Chicago PMI ...
p490
sa(dp491
Vtitle
p492
VInitial jobless claims rise more than expected
p493
sa(dp494
Vtitle
p495
VHere come initial jobless claims ...
p496
sa(dp497
Vtitle
p498
VPRESENTING: Wall Street's brightest minds reveal the most important charts in the world
p499
sa(dp500
Vtitle
p501
VHere's a brief guide to what traders are talking about right now
p502
sa(dp503
Vtitle
p504
VDubai will now charge passengers to fly through its airports because of the oil crash
p505
sa(dp506
Vtitle
p507
VStocks are rallying
p508
sa(dp509
Vtitle
p510
VDow futures up 110
p511
sa(dp512
Vtitle
p513
VADP private payrolls rise more than expected
p514
sa(dp515
Vtitle
p516
VHere come ADP private payrolls ...
p517
sa(dp518
Vtitle
p519
VHere's a super quick guide to what traders are talking about right now
p520
sa(dp521
Vtitle
p522
VValeant wants to delay its annual report even further
p523
sa(dp524
Vtitle
p525
VValeant wants to delay its annual report
p526
sa(dp527
Vtitle
p528
VHere comes Janet Yellen ... (USD, SPX, SPY, TLT, TLO, DJI, IXIC, DXY)
p529
sa(dp530
Vtitle
p531
VHere comes Janet Yellen ... (USD, SPX, SPY, TLT, TLO, DJI, IXIC, DXY)
p532
sa(dp533
Vtitle
p534
VHere comes Janet Yellen ... (USD, SPX, SPY, TLT, TLO, DJI, IXIC, DXY)
p535
sa(dp536
Vtitle
p537
VHere's what usually happens in markets after Janet Yellen's speeches
p538
sa(dp539
Vtitle
p540
VHere's what usually happens in markets after Janet Yellen's speeches
p541
sa(dp542
Vtitle
p543
VConsumer confidence jumps more than forecast in March
p544
sa(dp545
Vtitle
p546
VHere comes consumer confidence ...
p547
sa(dp548
Vtitle
p549
VHere comes consumer confidence ...
p550
sa(dp551
Vtitle
p552
VFutures are lower
p553
sa(dp554
Vtitle
p555
VFutures are lower
p556
sa(dp557
Vtitle
p558
VFutures are lower
p559
sa(dp560
Vtitle
p561
VHere come Case-Shiller home prices ... (XHB, ITB, PKB, HOMX, FLM)
p562
sa(dp563
Vtitle
p564
VHere come Case-Shiller home prices ...
p565
sa(dp566
Vtitle
p567
VAmerica's 2nd-largest homebuilder outlines why the housing crisis is good news
p568
sa(dp569
Vtitle
p570
VAmerica's second largest homebuilder outlines why the housing crisis is good news
p571
sa(dp572
Vtitle
p573
VAmerica's second largest homebuilder outlines why the housing crisis is good news
p574
sa(dp575
Vtitle
p576
VHere's a quick guide to what traders are talking about right now (SPY, DJI, IXIC)
p577
sa(dp578
Vtitle
p579
VHere's a quick guide to what traders are talking about right now (SPY, DJI, IXIC)
p580
sa(dp581
Vtitle
p582
VHere's a quick guide to what traders are talking about right now (SPY, DJI, IXIC)
p583
sa(dp584
Vtitle
p585
VHere comes the Dallas Fed ...
p586
sa(dp587
Vtitle
p588
VHere comes the Dallas Fed ...
p589
sa(dp590
Vtitle
p591
VHere come pending home sales ...
p592
sa(dp593
Vtitle
p594
VHere come pending home sales ...
p595
sa(dp596
Vtitle
p597
VHere come pending home sales ...
p598
sa(dp599
Vtitle
p600
VThe huge Chinese insurer trying to buy Starwood Hotels has made a new offer
p601
sa(dp602
Vtitle
p603
VThe huge Chinese insurer trying to buy Starwood Hotels has made a big new offer
p604
sa(dp605
Vtitle
p606
VStarwood Hotels says the big Chinese insurer interested in buying it has made a huge new offer
p607
sa(dp608
Vtitle
p609
VHere's a super quick guide to what traders are talking about right now (SPY, DJI, IXIC)
p610
sa(dp611
Vtitle
p612
VHere's a super quick guide to what traders are talking about right now (SPY, DJI, IXIC)
p613
sa(dp614
Vtitle
p615
VHere come personal income and spending ...
p616
sa(dp617
Vtitle
p618
VHere come personal income and spending ...
p619
sa(dp620
Vtitle
p621
VHere's a super quick guide to what traders are talking about right now (SPY, DJI, IXIC)
p622
sa(dp623
Vtitle
p624
VCREDIT SUISSE: Everyone else on Wall Street is dead wrong about these 23 stocks (AGIO, ADSK, BOX, CAT, DNKN, K, MTW, NSM, PDCO, SYY, X, ABAX, AXP, BIG, BWLD, DLTR, EXPD, F, OVAS, POT, VMI)
p625
sa(dp626
Vtitle
p627
VCREDIT SUISSE: Everyone else on Wall Street is dead wrong about these 23 stocks
p628
sa(dp629
Vtitle
p630
VCREDIT SUISSE: Everyone else on Wall Street is dead wrong about these 23 stocks
p631
sa(dp632
Vtitle
p633
VThe oil crash is almost over
p634
sa(dp635
Vtitle
p636
VFED'S BULLARD: The dot plot is probably unnecessary (TLT, TLO, USD, DXY)
p637
sa(dp638
Vtitle
p639
VDEUTSCHE BANK: Here's what would cause a stock market surge that's unlike anything we've seen recently (SPX, SPY)
p640
sa(dp641
Vtitle
p642
VHere's what the gender pay gap looks like around the world
p643
sa(dp644
Vtitle
p645
VThe oil crash has created America's worst housing markets (USO, WTI, OIL, VDE)
p646
sa(dp647
Vtitle
p648
VThe oil crash has created America's worst housing markets
p649
sa(dp650
Vtitle
p651
VThe oil crash has created America's worst housing markets
p652
sa(dp653
Vtitle
p654
VHere comes GDP ... (SPX, SPY, DJI, IXIC, USD, DXY)
p655
sa(dp656
Vtitle
p657
VHere comes GDP ...
p658
sa(dp659
Vtitle
p660
VGameStop shares are collapsing after the company said it expects sales to fall this quarter (GME)
p661
sa(dp662
Vtitle
p663
VGameStop shares are collapsing after the company said it expects sales to fall this quarter
p664
sa(dp665
Vtitle
p666
VStocks are lower (SPY, SPX, DJI, IXIC, USO, WTI, OIL, VDE)
p667
sa(dp668
Vtitle
p669
VGameStop shares are collapsing after the company said it expects sales to fall this quarter
p670
sa(dp671
Vtitle
p672
VOil rig count falls by 15
p673
sa(dp674
Vtitle
p675
VHere comes the Baker Hughes rig count ... (WTI, USO, OIL, VDE)
p676
sa(dp677
Vtitle
p678
VHere comes the Baker Hughes rig count ... (WTI, USO, OIL, VDE)
p679
sa(dp680
Vtitle
p681
VDEUTSCHE BANK: Here's a picture-perfect layout of how stocks can surge 12% this year
p682
sa(dp683
Vtitle
p684
VDEUTSCHE BANK: Here's a picture-perfect layout of how stocks can surge 12% this year
p685
sa(dp686
Vtitle
p687
VThe services sector barely grew in March
p688
sa(dp689
Vtitle
p690
VHere comes Markit services PMI ...
p691
sa(dp692
Vtitle
p693
VHere comes Markit services PMI ...
p694
sa(dp695
Vtitle
p696
VHere come durable goods ...
p697
sa(dp698
Vtitle
p699
VHere come durable goods ...
p700
sa(dp701
Vtitle
p702
VFutures are lower (SPY, SPX, DJI, IXIC, USO, WTI, OIL, VDE)
p703
sa(dp704
Vtitle
p705
VFutures are lower (SPY, SPX, DJI, IXIC, USO, WTI, OIL, VDE)
p706
sa(dp707
Vtitle
p708
VFutures are lower (SPY, SPX, DJI, IXIC, USO, WTI, OIL, VDE)
p709
sa(dp710
Vtitle
p711
VThis is what the gender pay gap looks like around the world
p712
sa(dp713
Vtitle
p714
VKB Home shares spike after earnings beat (KBH)
p715
sa(dp716
Vtitle
p717
VKB Home shares spike after earnings beat
p718
sa(dp719
Vtitle
p720
VKB Home shares spike after earnings beat
p721
sa(dp722
Vtitle
p723
VRegulators just approved a deal to create America's biggest power company
p724
sa(dp725
Vtitle
p726
VRegulators just approved a deal that would create America's biggest utility company
p727
sa(dp728
Vtitle
p729
VRegulators just approved a deal that would create America's biggest utility company
p730
sa(dp731
Vtitle
p732
VThere's no country where women make more than men
p733
sa(dp734
Vtitle
p735
VThere's no country where women make more than men
p736
sa(dp737
Vtitle
p738
VThere's no country where women make more than men
p739
sa(dp740
Vtitle
p741
VVirgin America is reportedly thinking about selling itself (VA)
p742
sa(dp743
Vtitle
p744
VVirgin America is reportedly thinking about selling itself
p745
sa(dp746
Vtitle
p747
VVirgin America is reportedly thinking about selling itself
p748
sa(dp749
Vtitle
p750
VNew home sales rise less than expected
p751
sa(dp752
Vtitle
p753
VFED'S BULLARD: The dot plot is probably unnecessary (TLT, TLO, USD, DXY)
p754
sa(dp755
Vtitle
p756
VFED'S BULLARD: The dot plot is probably unnecessary
p757
sa(dp758
Vtitle
p759
VHere come new home sales ...
p760
sa(dp761
Vtitle
p762
VHere come new home sales ...
p763
sa(dp764
Vtitle
p765
VFED'S BULLARD: The dot plot is probably unnecessary
p766
sa(dp767
Vtitle
p768
VFutures are flat (SPY, SPX, DJI, IXIC, NKE, QQQ, USO, WTI, OIL, VDE)
p769
sa(dp770
Vtitle
p771
VFutures are flat
p772
sa(dp773
Vtitle
p774
VFutures are flat
p775
sa(dp776
Vtitle
p777
VHere's a super quick guide to what traders are talking about right now (SPY, SPX, DJI, IXIC, USO, WTI, OIL)
p778
sa(dp779
Vtitle
p780
VHere's a super quick guide to what traders are talking about right now (SPY, SPX, DJI, IXIC, USO, WTI, OIL)
p781
sa(dp782
Vtitle
p783
VHere comes Nike ... (NKE)
p784
sa(dp785
Vtitle
p786
VHere comes Nike ...
p787
sa(dp788
Vtitle
p789
VHere comes Nike ...
p790
sa(dp791
Vtitle
p792
VA pharmaceutical company that bungled its 2014 earnings just reported for the first time in a year \u2014 its stock is surging
p793
sa(dp794
Vtitle
p795
VA pharmaceutical company that bungled its 2014 earnings just reported for the first time in a year \u2014 its stock is surging
p796
sa(dp797
Vtitle
p798
VA pharmaceutical company that bungled its 2014 earnings just reported for the first time in a year, and its stock is surging
p799
sa(dp800
Vtitle
p801
V'The warmest winter ever recorded' crushed the company that makes Calvin Klein (GIII)
p802
sa(dp803
Vtitle
p804
V'The warmest winter ever recorded' crushed the company that makes Calvin Klein
p805
sa(dp806
Vtitle
p807
V'The warmest winter ever recorded' crushed the company that makes Calvin Klein
p808
sa(dp809
Vtitle
p810
V10 housing markets where first-time buyers have no chance
p811
sa(dp812
Vtitle
p813
VHere comes Markit manufacturing PMI ...
p814
sa(dp815
Vtitle
p816
V10 housing markets where first-time buyers have no chance
p817
sa(dp818
Vtitle
p819
VHere comes Markit manufacturing PMI ...
p820
sa(dp821
Vtitle
p822
V10 housing markets where first-time buyers have no chance
p823
sa(dp824
Vtitle
p825
VHere comes Markit manufacturing PMI ...
p826
sa(dp827
Vtitle
p828
VFHFA home prices rise as expected
p829
sa(dp830
Vtitle
p831
VHere come FHFA home prices ...
p832
sa(dp833
Vtitle
p834
VHere come FHFA home prices ...
p835
sa(dp836
Vtitle
p837
VHere's a super quick guide to what traders are talking about right now (SPX, SPY, FTSE, IWIM)
p838
sa(dp839
Vtitle
p840
VHere's a super quick guide to what traders are talking about right now (SPX, SPY, FTSE, IWIM)
p841
sa(dp842
Vtitle
p843
VFutures are in the red
p844
sa(dp845
Vtitle
p846
VFutures are in the red
p847
sa(dp848
Vtitle
p849
VThe oil crash is almost over
p850
sa(dp851
Vtitle
p852
VThe world's largest oil driller just gave a very bearish presentation on the future of the industry (SLB)
p853
sa(dp854
Vtitle
p855
VThe world's largest oil driller just gave a very bearish presentation on the future of the industry
p856
sa(dp857
Vtitle
p858
VThe world's largest oil driller just gave a very bearish presentation on the future of the industry
p859
sa(dp860
Vtitle
p861
VHere's how Apple shares do right after the new iPhone launches (AAPL)
p862
sa(dp863
Vtitle
p864
VHere's how Apple shares do right after the new iPhone launches (AAPL)
p865
sa(dp866
Vtitle
p867
VHere's how Apple shares do right after the new iPhone launches
p868
sa(dp869
Vtitle
p870
VHere come existing home sales ...
p871
sa(dp872
Vtitle
p873
VHere come existing home sales ...
p874
sa(dp875
Vtitle
p876
VHere come existing home sales ...
p877
sa(dp878
Vtitle
p879
VFutures are almost flat (SPY, SPX, DJI, IXIC, USO, WTI, OIL, VDE)
p880
sa(dp881
Vtitle
p882
VFutures are almost flat
p883
sa(dp884
Vtitle
p885
VFutures are almost flat
p886
sa(dp887
Vtitle
p888
VMarriott raised its offer to buy Starwood Hotels and snatched it back from a huge Chinese insurer (MAR, HOT)
p889
sa(dp890
Vtitle
p891
VHere's a super quick guide to what traders are talking about right now
p892
sa(dp893
Vtitle
p894
VHere's a super quick guide to what traders are talking about right now
p895
sa(dp896
Vtitle
p897
VMarriott raised its offer to buy Starwood Hotels and snatched it back from a huge Chinese insurer
p898
sa(dp899
Vtitle
p900
VMarriott raised its offer to buy Starwood Hotels and snatched it back from a huge Chinese insurer
p901
sa(dp902
Vtitle
p903
VAmericans think the era of super cheap gas is over
p904
sa(dp905
Vtitle
p906
VPRESENTING: The most important charts in the world from the brightest minds on Wall Street (SPY, SPX, DJI, IXIC, USD, TLT, TLO)
p907
sa(dp908
Vtitle
p909
VHere comes the Baker Hughes rig count ... (CL_F, OIL, WTI, VDE)
p910
sa(dp911
Vtitle
p912
VHere comes the Baker Hughes rig count ... (CL_F, OIL, WTI, VDE)
p913
sa(dp914
Vtitle
p915
VHere comes the Baker Hughes rig count ... (CL_F, OIL, WTI, VDE)
p916
sa(dp917
Vtitle
p918
VAmericans think the era of super cheap gas is over
p919
sa(dp920
Vtitle
p921
VHere comes consumer confidence ...
p922
sa(dp923
Vtitle
p924
VHere comes consumer confidence ...
p925
sa(dp926
Vtitle
p927
VPRESENTING: Wall Street's brightest minds reveal the most important charts in the world
p928
sa(dp929
Vtitle
p930
VStarwood Hotels confirms it got a much better buyout offer from a huge Chinese company
p931
sa(dp932
Vtitle
p933
VStarwood Hotels confirms it got a much better buyout offer from a huge Chinese company
p934
sa(dp935
Vtitle
p936
VStarwood Hotels confirms it got a huge buyout offer from a Chinese company
p937
sa(dp938
Vtitle
p939
VFutures are rallying and crude oil is soaring at a 3-month high
p940
sa(dp941
Vtitle
p942
VFutures are rallying and crude oil is soaring at a 3-month high
p943
sa(dp944
Vtitle
p945
VHere's a super quick guide to what traders are talking about right now (SPY, SPX, DJI, IXIC, USO, WTI, OIL, VDE)
p946
sa(dp947
Vtitle
p948
VHere's a super quick guide to what traders are talking about right now (SPY, SPX, DJI, IXIC, USO, WTI, OIL, VDE)
p949
sa(dp950
Vtitle
p951
VHere's a super quick guide to what traders are talking about right now (SPY, SPX, DJI, IXIC, USO, WTI, OIL, VDE)
p952
sa(dp953
Vtitle
p954
VHere come JOLTS ...
p955
sa(dp956
Vtitle
p957
VHere come JOLTS ...
p958
sa(dp959
Vtitle
p960
VCaterpillar is getting slammed by the global economy (CAT)
p961
sa(dp962
Vtitle
p963
VHere come JOLTS ...
p964
sa(dp965
Vtitle
p966
VCaterpillar is getting slammed by the global economy
p967
sa(dp968
Vtitle
p969
VCaterpillar is getting slammed by the global economy
p970
sa(dp971
Vtitle
p972
VPhilly Fed manufacturing index surges to 9-month high
p973
sa(dp974
Vtitle
p975
VFutures are lower (SPY, DJI, IXIC, IWIM, USD, DXY)
p976
sa(dp977
Vtitle
p978
VHere comes the Philly Fed ...
p979
sa(dp980
Vtitle
p981
VHere comes the Philly Fed ...
p982
sa(dp983
Vtitle
p984
VFutures are lower (SPY, DJI, IXIC, IWIM, USD, DXY)
p985
sa(dp986
Vtitle
p987
VHere's a super quick guide to what traders are talking about right now (TLT, TLO, USD, SPY, SPX, DJI, IXIC, IWIM, DXY)
p988
sa(dp989
Vtitle
p990
VHere's a super quick guide to what traders are talking about right now (TLT, TLO, USD, SPY, SPX, DJI, IXIC, IWIM, DXY)
p991
sa(dp992
Vtitle
p993
VLIVE: Janet Yellen speaks
p994
sa(dp995
Vtitle
p996
VHere comes Janet Yellen ... (TLT, TLO, USD, DXY)
p997
sa(dp998
Vtitle
p999
VHere comes Janet Yellen ...
p1000
sa(dp1001
Vtitle
p1002
VStocks are basically flat ahead of the Fed (SPY, SPX, DJI, USD, DXY, TLT, TLO)
p1003
sa(dp1004
Vtitle
p1005
VHere comes the Fed ... (DXY, USD, TLT, TLO)
p1006
sa(dp1007
Vtitle
p1008
VHere comes the Fed ... (DXY, USD, TLT, TLO)
p1009
sa(dp1010
Vtitle
p1011
VHere comes the Fed ...
p1012
sa(dp1013
Vtitle
p1014
VStocks are basically flat ahead of the Fed
p1015
sa(dp1016
Vtitle
p1017
VStocks are basically flat ahead of the Fed
p1018
sa(dp1019
Vtitle
p1020
VHere comes industrial production ...
p1021
sa(dp1022
Vtitle
p1023
VHere comes industrial production ...
p1024
sa(dp1025
Vtitle
p1026
VHere comes industrial production ...
p1027
sa(dp1028
Vtitle
p1029
VInflation just hit a post-crisis high
p1030
sa(dp1031
Vtitle
p1032
VHere comes CPI ... (DXY, USD, TLT, TLO)
p1033
sa(dp1034
Vtitle
p1035
VHere comes CPI ... (DXY, USD, TLT, TLO)
p1036
sa(dp1037
Vtitle
p1038
VHere's a super quick guide to what traders are talking about right now (TLT, USD, DXY, SPY, IXIC, IWIM)
p1039
sa(dp1040
Vtitle
p1041
VHere's a super quick guide to what traders are talking about right now (TLT, USD, DXY, SPY, IXIC, IWIM)
p1042
sa(dp1043
Vtitle
p1044
VHere are 18 books Wall Street will be reading this spring
p1045
sa(dp1046
Vtitle
p1047
VChipotle says its sales still stink, stock falls 5%
p1048
sa(dp1049
Vtitle
p1050
VChipotle says its sales still stink, stock falls 5%
p1051
sa(dp1052
Vtitle
p1053
VChipotle just announced it lost a bunch of money in the first quarter, and its sales are still a mess
p1054
sa(dp1055
Vtitle
p1056
VEverything you need to know ahead of the Federal Reserve's latest announcement on Wednesday
p1057
sa(dp1058
Vtitle
p1059
VHere comes homebuilder sentiment ...
p1060
sa(dp1061
Vtitle
p1062
VHere comes homebuilder sentiment ...
p1063
sa(dp1064
Vtitle
p1065
VHere comes homebuilder sentiment ...
p1066
sa(dp1067
Vtitle
p1068
VHere come retail sales ...
p1069
sa(dp1070
Vtitle
p1071
VHere come retail sales ...
p1072
sa(dp1073
Vtitle
p1074
VHere come retail sales ...
p1075
sa(dp1076
Vtitle
p1077
VFutures are lower ahead of a lot of data (SPY, USD, SPX, DJI, IXIC, USO, WTI, OIL, VDE, BNO, DXY, IWIM, QQQ)
p1078
sa(dp1079
Vtitle
p1080
VFutures are lower ahead of a lot of data
p1081
sa(dp1082
Vtitle
p1083
VFutures are lower ahead of a lot of data
p1084
sa(dp1085
Vtitle
p1086
VHere's a super quick guide to what traders are talking about right now (AXP, BAC, C, COF, DFS, JPM, SY, SPY, DJI, IXIC, QQQ, IWIM, DXY, USD, JPY, DAX, FTSE)
p1087
sa(dp1088
Vtitle
p1089
VEnergy stocks are getting hammered (TFM, HOT, MAR, SWN, CHK)
p1090
sa(dp1091
Vtitle
p1092
VSTOCKS GO NOWHERE, OIL FALLS: Here\u2019s what you need to know
p1093
sa(dp1094
Vtitle
p1095
VSTOCKS GO NOWHERE, OIL FALLS: Here\u2019s what you need to know
p1096
sa(dp1097
Vtitle
p1098
VOil companies have destroyed the chances of a huge price rebound
p1099
sa(dp1100
Vtitle
p1101
VOil companies have destroyed the chances of a huge price rebound
p1102
sa(dp1103
Vtitle
p1104
VEnergy stocks are getting hammered
p1105
sa(dp1106
Vtitle
p1107
VOne economist thinks nailing the Fed's next move comes down to answering 3 questions right
p1108
sa(dp1109
Vtitle
p1110
VOne economist thinks nailing the Fed's next move comes down to answering 3 questions right
p1111
sa(dp1112
Vtitle
p1113
VHere's a super quick guide to what traders are talking about right now (SPY, SPX, DJI, IXIC, IWIM, QQQ)
p1114
sa(dp1115
Vtitle
p1116
VHere's a super quick guide to what traders are talking about right now (SPY, SPX, DJI, IXIC, IWIM, QQQ)
p1117
sa(dp1118
Vtitle
p1119
VHere's a super quick guide to what traders are talking about right now (SPY, SPX, DJI, IXIC, IWIM, QQQ)
p1120
sa(dp1121
Vtitle
p1122
VMorgan Stanley's top equity strategist recommends investors do the opposite of whatever they think they should do (SPY, SPX, QQQ, IWIM)
p1123
sa(dp1124
Vtitle
p1125
VMorgan Stanley's top equity strategist recommends investors do the opposite of whatever they think they should do
p1126
sa(dp1127
Vtitle
p1128
VUS rig count falls to the lowest level on record (OIL)
p1129
sa(dp1130
Vtitle
p1131
VThe dollar is no longer an excuse for the Fed not to raise rates (DXY, USD)
p1132
sa(dp1133
Vtitle
p1134
VThe dollar is no longer an excuse for the Fed not to raise rates
p1135
sa(dp1136
Vtitle
p1137
VUS rig count falls to the lowest level on record
p1138
sa(dp1139
Vtitle
p1140
VFutures are flying higher (DJI, IXIC, SPY, USO, WTI, OIL, VDE)
p1141
sa(dp1142
Vtitle
p1143
VFutures are flying higher
p1144
sa(dp1145
Vtitle
p1146
VFutures are flying higher
p1147
sa(dp1148
Vtitle
p1149
VHere's a super quick guide to what traders are talking about right now
p1150
sa(dp1151
Vtitle
p1152
VHere's a super quick guide to what traders are talking about right now
p1153
sa(dp1154
Vtitle
p1155
VHere come initial jobless claims ...
p1156
sa(dp1157
Vtitle
p1158
VHere's a super quick guide to what traders are talking about right now (SPX, SPY, DJI, IXIC, USO, EUR, DXY)
p1159
sa(dp1160
Vtitle
p1161
VFutures are little changed
p1162
sa(dp1163
Vtitle
p1164
VNew Zealand's central bank just cut rates unexpectedly and the kiwi is getting crushed
p1165
sa(dp1166
Vtitle
p1167
VJeff Gundlach thinks chart makes everything we 'know' about China's growth unbelievable
p1168
sa(dp1169
Vtitle
p1170
VHappy birthday, bull market!
p1171
sa(dp1172
Vtitle
p1173
VValeant names 3 new members to its board, stock rises 4%
p1174
sa(dp1175
Vtitle
p1176
VFutures are rebounding
p1177
sa(dp1178
Vtitle
p1179
VLIVE! Jeff Gundlach's latest presentation on markets and the economy
p1180
sa(dp1181
Vtitle
p1182
VREPORT: American Express may be looking to sell itself
p1183
sa(dp1184
Vtitle
p1185
VChevron plans to cut capital spending and still produce more oil
p1186
sa(dp1187
Vtitle
p1188
VFutures are down
p1189
sa(dp1190
Vtitle
p1191
VHere's a super quick guide to what traders are talking about right now (AAPL, SPY, SPX, DJI, IXIC, IWIM, USO, WTI, OIL, VDE, BNO)
p1192
sa(dp1193
Vtitle
p1194
VShake Shack is getting slammed after earnings
p1195
sa(dp1196
Vtitle
p1197
VTRADER: Here are 5 reasons why everyone is bullish right now
p1198
sa(dp1199
Vtitle
p1200
VMorgan Stanley's top equity strategist recommends investors do the opposite of whatever they think they should do
p1201
sa(dp1202
Vtitle
p1203
VHere's a super quick guide to what traders are talking about right now (USD, DXY, TLT, TLO, SPY, SPX, DJI, IXIC, IWIM)
p1204
sa(dp1205
Vtitle
p1206
V13 charts that tell the inside story of the US job market right now
p1207
sa(dp1208
Vtitle
p1209
VHere's what 18 Wall Street pros see for the stock market in 2016
p1210
sa(dp1211
Vtitle
p1212
VOne struggling oil driller could be getting a lifeline from its billionaire founder, and now the stock is up 90%
p1213
sa(dp1214
Vtitle
p1215
VOil rig count drops for 11th straight week
p1216
sa(dp1217
Vtitle
p1218
VHere comes the jobs report ... (SPY, SPX, DJI, IXIC, IWIM, DXY, USD, TLT, TLO)
p1219
sa(dp1220
Vtitle
p1221
VFutures are flat ahead of the jobs report
p1222
sa(dp1223
Vtitle
p1224
VHere's your quick guide to the jobs report
p1225
sa(dp1226
Vtitle
p1227
VSmith & Wesson just reported a blockbuster quarter and says demand for guns is through the roof
p1228
sa(dp1229
Vtitle
p1230
VCostco is raising its minimum wage
p1231
sa(dp1232
Vtitle
p1233
VHere's your quick guide to Friday's jobs report
p1234
sa(dp1235
Vtitle
p1236
VHere comes Markit services PMI ...
p1237
sa(dp1238
Vtitle
p1239
VHere come initial jobless claims ...
p1240
sa(dp1241
Vtitle
p1242
VHerbalife just made a massive change to some of its member data, and now the stock is crashing
p1243
sa(dp1244
Vtitle
p1245
VHere comes the Beige Book ...
p1246
sa(dp1247
Vtitle
p1248
VSaudi Arabia reportedly wants $10 billion from banks
p1249
sa(dp1250
Vtitle
p1251
VUS crude oil in storage had a huge spike last week
p1252
sa(dp1253
Vtitle
p1254
VStocks are red
p1255
sa(dp1256
Vtitle
p1257
VExxon is slashing its capital spending this year by 25%
p1258
sa(dp1259
Vtitle
p1260
VADP private payrolls rise more than expected
p1261
sa(dp1262
Vtitle
p1263
VHere's a quick guide to what traders are talking about right now (SPY, SPX, QQQ, IWIM, DXY, TLT, TLO)
p1264
sa(dp1265
Vtitle
p1266
VConsol Energy is getting deleted from the S&P 500
p1267
sa(dp1268
Vtitle
p1269
VTRADER: Here are 8 reasons stocks are exploding higher right now
p1270
sa(dp1271
Vtitle
p1272
VAnalysts at RBC take 56% off their price target on Valeant after the stock falls 70% in 6 months
p1273
sa(dp1274
Vtitle
p1275
VHere comes Markit manufacturing PMI ... (USD, DXY)
p1276
sa(dp1277
Vtitle
p1278
VHere are the 18 books Wall Street will be reading this spring
p1279
sa(dp1280
Vtitle
p1281
VFutures are rallying (GLD, GLX, SPY, SPX, DJI, IXIC, IWIM, QQQ, DXY)
p1282
sa(dp1283
Vtitle
p1284
VLIVE: Auto sales
p1285
sa(dp1286
Vtitle
p1287
VHere's a super quick guide to what traders are talking about right now (SPY, SPX, DJI, QQQ, IXIC, IWIM, DXY, GLX, GLD)
p1288
sa(dp1289
Vtitle
p1290
VAt this rate, the US oil rig count will be zero by August
p1291
sa(dp1292
Vtitle
p1293
VPending home sales fall by the most in 2 years
p1294
sa(dp1295
Vtitle
p1296
VHere comes Dallas Fed manufacturing ...
p1297
sa(dp1298
Vtitle
p1299
VHere comes Chicago PMI ... (USD)
p1300
sa(dp1301
Vtitle
p1302
VAmerican Express is officially selling its massive Costco business to Citi
p1303
sa(dp1304
Vtitle
p1305
VFutures are lower (SPY, SPX, DJI, IXIC)
p1306
sa(dp1307
Vtitle
p1308
VValeant CEO Mike Pearson is back from medical leave
p1309
sa(dp1310
Vtitle
p1311
VDeutsche Bank analysts are not sure how or when Chipotle's crisis will be over
p1312
sa(dp1313
Vtitle
p1314
VBen Bernanke lays out the 2 simple reasons oil and stock prices are moving together
p1315
sa(dp1316
Vtitle
p1317
VIf you want to work in Berkshire Hathaway's Omaha office, start looking for another job
p1318
sa(dp1319
Vtitle
p1320
VWarren Buffett says it's 'highly likely' climate change poses a major problem for the planet
p1321
sa(dp1322
Vtitle
p1323
VHere comes Warren Buffett's letter
p1324
sa(dp1325
Vtitle
p1326
VEarnings expectations are setting up the stock market for a major surprise
p1327
sa(dp1328
Vtitle
p1329
VHere comes the Baker Hughes rig count ... (USO, WTI, OIL, VDE, BHI)
p1330
sa(dp1331
Vtitle
p1332
VHere comes consumer confidence ...
p1333
sa(dp1334
Vtitle
p1335
VAmerica beats expectations
p1336
sa(dp1337
Vtitle
p1338
VFutures are rallying (SPY, DJI, IXIC, BRK.A, BRK.B, QQQ, IWM, USD, DXY)
p1339
sa(dp1340
Vtitle
p1341
VAlibaba reportedly wants $4 billion to make itself even bigger
p1342
sa(dp1343
Vtitle
p1344
VHere's a quick guide to what traders are talking about right now (SPY, DJI, IXIC, QQQ, IWM)
p1345
sa(dp1346
Vtitle
p1347
VWeight Watchers is getting smoked
p1348
sa(dp1349
Vtitle
p1350
VWells Fargo slashes its S&P 500 price target, still expects an 8% rally
p1351
sa(dp1352
Vtitle
p1353
VLarry Summers slams the Wall Street Journal's 'illogical' take on his call to kill the $100 bill
p1354
sa(dp1355
Vtitle
p1356
VNatural gas just crashed to a 17-year low
p1357
sa(dp1358
Vtitle
p1359
VInitial jobless claims rise more than expected
p1360
sa(dp1361
Vtitle
p1362
VBest Buy admits Q4 sales were terrible... just like everyone else
p1363
sa(dp1364
Vtitle
p1365
VHere's a super quick guide to what traders are talking about right now (SPY, DJI, IXIC, QQQ)
p1366
sa(dp1367
Vtitle
p1368
VRestoration Hardware forecasts a terrible fourth quarter and breaks out every excuse in the book (RH)
p1369
sa(dp1370
Vtitle
p1371
VNew home sales drop more than expected
p1372
sa(dp1373
Vtitle
p1374
VWe just got the clearest sign yet that something is wrong with the US economy
p1375
sa(dp1376
Vtitle
p1377
VIt's going from bad to worse at Chesapeake Energy
p1378
sa(dp1379
Vtitle
p1380
VHere's a quick guide to what traders are talking about right now (SPY, SPX, QQQ, DJI, IXIC, USO, WTI, OIL, VDE, BNO)
p1381
sa(dp1382
Vtitle
p1383
VEtsy shares jump 10% after earnings
p1384
sa(dp1385
Vtitle
p1386
VStocks and crude oil are slipping
p1387
sa(dp1388
Vtitle
p1389
VExisting home sales rose more than expected in January
p1390
sa(dp1391
Vtitle
p1392
VHere come Case-Shiller home prices ...
p1393
sa(dp1394
Vtitle
p1395
VMacy's says bitter winter weather salvaged its sales
p1396
sa(dp1397
Vtitle
p1398
VDeutsche Bank analysts are not sure how or when Chipotle's crisis will be over
p1399
sa(dp1400
Vtitle
p1401
VHere's a super quick guide to what traders are talking about right now (SPY, DJI, IXIC, SPX, QQQ, USD, TLT, TLO)
p1402
sa(dp1403
Vtitle
p1404
VStocks have been in rally mode \u2014 here\u2019s what one strategist thinks is going on
p1405
sa(dp1406
Vtitle
p1407
VFitbit is crashing
p1408
sa(dp1409
Vtitle
p1410
VBen Bernanke lays out the 2 simple reasons why oil and stock prices are moving together
p1411
sa(dp1412
Vtitle
p1413
VHere comes Markit flash manufacturing PMI ...
p1414
sa(dp1415
Vtitle
p1416
VGlobal markets are rallying
p1417
sa(dp1418
Vtitle
p1419
VHere's a super quick guide to what traders are talking about right now (SPY, SPX, DJI, IXIC, QQQ, USD, USO, WTI, OIL, VDE)
p1420
sa(dp1421
Vtitle
p1422
VJohn Deere sends warning shots to the global farming business
p1423
sa(dp1424
Vtitle
p1425
VMcDonald's all-day breakfast is causing a crisis in the fast-food world
p1426
sa(dp1427
Vtitle
p1428
VOil is so cheap even pirates don't want it anymore
p1429
sa(dp1430
Vtitle
p1431
VMorgan Stanley's top equity strategist says clients should have done the opposite of what he recommended
p1432
sa(dp1433
Vtitle
p1434
VGOLDMAN: Short gold
p1435
sa(dp1436
Vtitle
p1437
VOil rig count collapses for 9th straight week
p1438
sa(dp1439
Vtitle
p1440
VResearchers made a promising finding about a Weight Watchers diet, and now the stock is going bonkers
p1441
sa(dp1442
Vtitle
p1443
VFutures are lower ahead of the open
p1444
sa(dp1445
Vtitle
p1446
VCore inflation rises by the most in four years
p1447
sa(dp1448
Vtitle
p1449
VJohn Deere sends warning shots to the global farming business
p1450
sa(dp1451
Vtitle
p1452
VHere's a super quick guide to what traders are talking about right now (SPY, DJI, IXIC, QQQ, USO, WTI, OIL, VDE, DXY, BNO, UST, TLT, TLO)
p1453
sa(dp1454
Vtitle
p1455
VStocks are lower (SPY, DJI, IXIC, SPX, QQQ, DXY, USD, WMT, IBM)
p1456
sa(dp1457
Vtitle
p1458
VNordstrom just gave an ugly outlook, shares crater
p1459
sa(dp1460
Vtitle
p1461
VMcDonald's all-day breakfast is causing a crisis in the fast-food world
p1462
sa(dp1463
Vtitle
p1464
VPhilly Fed manufacturing beats but businesses are still struggling
p1465
sa(dp1466
Vtitle
p1467
VFutures are higher
p1468
sa(dp1469
Vtitle
p1470
VHere's a super quick guide to what traders are talking about right now (SPX, SPY, DJI, IXIC, QQQ, USD, TLT, TLO, DXY)
p1471
sa(dp1472
Vtitle
p1473
VWalmart expects virtually no sales growth this year
p1474
sa(dp1475
Vtitle
p1476
VThe Fed might add a bunch of new charts to future economic forecasts but worries people will get confused
p1477
sa(dp1478
Vtitle
p1479
VHere come the Fed minutes ...
p1480
sa(dp1481
Vtitle
p1482
VStocks are rallying
p1483
sa(dp1484
Vtitle
p1485
VHere comes industrial production ...
p1486
sa(dp1487
Vtitle
p1488
VProducer prices rise in January
p1489
sa(dp1490
Vtitle
p1491
VOil is so cheap even pirates don't want it anymore
p1492
sa(dp1493
Vtitle
p1494
VHere's a super quick guide to what traders are talking about right now (SPY, DJI, IXIC, USO, WTI, OIL, VDE, BNO, QQQ)
p1495
sa(dp1496
Vtitle
p1497
VFossil smashes earnings expectations, stock jumps 14%
p1498
sa(dp1499
Vtitle
p1500
VMorgan Stanley's top equity strategist says clients should have done the opposite of what he recommended
p1501
sa(dp1502
Vtitle
p1503
VGOLDMAN: Short gold
p1504
sa(dp1505
Vtitle
p1506
VThis is the beginning of the end for US shale oil
p1507
sa(dp1508
Vtitle
p1509
VHomebuilder sentiment falls in February
p1510
sa(dp1511
Vtitle
p1512
VHere comes Empire State manufacturing ...
p1513
sa(dp1514
Vtitle
p1515
VHere's a super quick guide to what traders are talking about right now (SPY, DJI, QQQ, IXIC, USD, TLO, TLT, DXY, WTI, OIL, VDE, BNO, GIS, MDLZ, HRL, SYY, TSN, ADM)
p1516
sa(dp1517
Vtitle
p1518
VBarclays outlines how to invest during a recession but doesn't recommend doing it right now
p1519
sa(dp1520
Vtitle
p1521
VHere's what 18 Wall Street pros are predicting for the stock market in 2016
p1522
sa(dp1523
Vtitle
p1524
VBond guru Gary Shilling thinks the 10-year Treasury yield is heading to 1%
p1525
sa(dp1526
Vtitle
p1527
VIt keeps getting harder to argue the US economy is entering recession
p1528
sa(dp1529
Vtitle
p1530
VCrude oil just had its biggest day in 7 years
p1531
sa(dp1532
Vtitle
p1533
VOil rig count falls for 8th straight week
p1534
sa(dp1535
Vtitle
p1536
VUMich consumer sentiment misses
p1537
sa(dp1538
Vtitle
p1539
VBond guru Gary Shilling thinks the 10-year Treasury yield is heading to 1%
p1540
sa(dp1541
Vtitle
p1542
VRetail sales rise more than expected
p1543
sa(dp1544
Vtitle
p1545
VHere's a super quick guide to what traders are talking about right now (SPY, DJI, IXIC, DXY, EUR, USD, TLT, TLO)
p1546
sa(dp1547
Vtitle
p1548
VFutures are rallying (SPY, DJI, IXIC, USO, WTI, OIL, VDE, TLT, TLO)
p1549
sa(dp1550
Vtitle
p1551
VIT'S OFFICIAL: Global stocks are in a bear market
p1552
sa(dp1553
Vtitle
p1554
VLIVE: Janet Yellen is back in Congress
p1555
sa(dp1556
Vtitle
p1557
VHere come initial jobless claims ...
p1558
sa(dp1559
Vtitle
p1560
V'The seas are angry' \u2014 here's what traders are talking about as global markets tank this morning
p1561
sa(dp1562
Vtitle
p1563
VGlobal markets are collapsing
p1564
sa(dp1565
Vtitle
p1566
VHere's how insanely volatile oil prices have been this year
p1567
sa(dp1568
Vtitle
p1569
VLIVE: Tesla reports earnings
p1570
sa(dp1571
Vtitle
p1572
VLIVE: Janet Yellen testifies to the House Financial Services Committee
p1573
sa(dp1574
Vtitle
p1575
VHere comes Janet Yellen's testimony ...
p1576
sa(dp1577
Vtitle
p1578
VHere's a super quick guide to what traders are talking about right now (SPY, DJI, IXIC, SPX, QQQ, TLT, TLO, USD)
p1579
sa(dp1580
Vtitle
p1581
VFutures are rallying
p1582
sa(dp1583
Vtitle
p1584
VHere's what to expect when Janet Yellen faces Congress this week
p1585
sa(dp1586
Vtitle
p1587
VDisney crushes earnings expectations thanks to Star Wars but ESPN profits decline
p1588
sa(dp1589
Vtitle
p1590
VViacom is crashing
p1591
sa(dp1592
Vtitle
p1593
VHere comes JOLTS ...
p1594
sa(dp1595
Vtitle
p1596
VBarclays outlines how to invest during a recession but doesn't recommend doing it right now
p1597
sa(dp1598
Vtitle
p1599
V21st Century Fox shares are sliding
p1600
sa(dp1601
Vtitle
p1602
VFutures are falling
p1603
sa(dp1604
Vtitle
p1605
VHere's a super quick guide to what traders are talking about right now (SPY, DJI, IXIC, TLT, TLO, USD)
p1606
sa(dp1607
Vtitle
p1608
VYelp just released its earnings way ahead of schedule
p1609
sa(dp1610
Vtitle
p1611
VChesapeake is down 40%
p1612
sa(dp1613
Vtitle
p1614
VDeutsche Bank's Joe LaVorgna thinks March is off the table
p1615
sa(dp1616
Vtitle
p1617
VThe 'FANGs' are getting crushed
p1618
sa(dp1619
Vtitle
p1620
VGlobal markets are getting slammed
p1621
sa(dp1622
Vtitle
p1623
VAlmost everything lost value in January
p1624
sa(dp1625
Vtitle
p1626
VAfter a 'confusing' jobs report, Barclays has lowered its expectations for the Fed once again
p1627
sa(dp1628
Vtitle
p1629
VThese 9 charts tell the definitive story of the US labor market
p1630
sa(dp1631
Vtitle
p1632
VOil rig count plunges for 7th straight week
p1633
sa(dp1634
Vtitle
p1635
VLINKEDIN IS CRASHING
p1636
sa(dp1637
Vtitle
p1638
VAfter a 'confusing' jobs report, Barclays has lowered its expectations for the Fed once again
p1639
sa(dp1640
Vtitle
p1641
VHere comes the jobs report ...
p1642
sa(dp1643
Vtitle
p1644
VFutures aren't doing much ahead of the jobs report
p1645
sa(dp1646
Vtitle
p1647
VLinkedIn is crashing after weak earnings guidance
p1648
sa(dp1649
Vtitle
p1650
VGoldman Sachs can't identify a single reason why Friday's jobs report will be great
p1651
sa(dp1652
Vtitle
p1653
VUBS cuts its 2016 S&P 500 target and says stocks could fall 8% in the next few weeks
p1654
sa(dp1655
Vtitle
p1656
VHere come factory orders ...
p1657
sa(dp1658
Vtitle
p1659
VFutures are lower (USD, SPX, SPY, DJI, IXIC)
p1660
sa(dp1661
Vtitle
p1662
VHere come initial jobless claims ...
p1663
sa(dp1664
Vtitle
p1665
VConocoPhillips slashes dividend, says it's best to expect oil prices to be lower for a while
p1666
sa(dp1667
Vtitle
p1668
VJob cuts surged 218% in January
p1669
sa(dp1670
Vtitle
p1671
VDOW GAINS 180 IN WILD DAY ON WALL STREET: Here's what you need to know
p1672
sa(dp1673
Vtitle
p1674
VLIVE: GoPro reports earnings
p1675
sa(dp1676
Vtitle
p1677
VOne trader has an interesting theory about why we might be seeing a bottom in oil prices
p1678
sa(dp1679
Vtitle
p1680
VStocks are rebounding
p1681
sa(dp1682
Vtitle
p1683
VMarkit services PMI falls to 27-month low
p1684
sa(dp1685
Vtitle
p1686
VThe entire story of Chipotle's disastrous 2015 explained in one chart
p1687
sa(dp1688
Vtitle
p1689
VADP private payrolls rise more than expected
p1690
sa(dp1691
Vtitle
p1692
VHere's a quick guide to what traders are talking about right now (SPY, SPX, DJI, IXIC)
p1693
sa(dp1694
Vtitle
p1695
VS&P thinks 10 of the world's biggest oil companies just got a lot riskier
p1696
sa(dp1697
Vtitle
p1698
VLIVE: Chipotle reports earnings
p1699
sa(dp1700
Vtitle
p1701
VMichael Kors reported a solid holiday quarter, and its shares are exploding higher
p1702
sa(dp1703
Vtitle
p1704
VFutures are lower
p1705
sa(dp1706
Vtitle
p1707
VLIVE: Auto sales
p1708
sa(dp1709
Vtitle
p1710
VHere's a super quick guide to what traders are talking about right now (DOW, SPY, SPX, DJI, IXIC, USO, WTI, OIL, VDE, BNO, TLT, TLO, USD)
p1711
sa(dp1712
Vtitle
p1713
VDow Chemical expects to continue cashing in from the oil crash
p1714
sa(dp1715
Vtitle
p1716
VMorgan Stanley's top auto analyst thinks Tesla's next big launches could be flops
p1717
sa(dp1718
Vtitle
p1719
VLumber Liquidators shares are going nuts
p1720
sa(dp1721
Vtitle
p1722
VHere comes Markit manufacturing PMI ...
p1723
sa(dp1724
Vtitle
p1725
VHere come personal income and spending ...
p1726
sa(dp1727
Vtitle
p1728
VHere's a super quick guide to what traders are talking about right now (SPY, SPX, DJI, IXIC)
p1729
sa(dp1730
Vtitle
p1731
VFutures are getting slammed
p1732
sa(dp1733
Vtitle
p1734
VAlmost everything lost value in January
p1735
sa(dp1736
Vtitle
p1737
V2 sentences perfectly explain how fracking overpowered the oil market and sent prices crashing
p1738
sa(dp1739
Vtitle
p1740
VThe massive layoffs in manufacturing are all about Texas
p1741
sa(dp1742
Vtitle
p1743
VThe amount of crude oil sitting in storage is almost literally off the chart
p1744
sa(dp1745
Vtitle
p1746
VCaterpillar is not expecting the global economy to get any better this year
p1747
sa(dp1748
Vtitle
p1749
VHere's what it would take for investment giant Charles Schwab to tell its clients to sell stocks
p1750
sa(dp1751
Vtitle
p1752
VBerkshire Hathaway is planning to live stream its epic annual meeting for the first time ever
p1753
sa(dp1754
Vtitle
p1755
VHere comes the Baker Hughes rig count ...
p1756
sa(dp1757
Vtitle
p1758
VStocks are rallying and the yen is getting crushed
p1759
sa(dp1760
Vtitle
p1761
VConsumer confidence weakened a bit in January
p1762
sa(dp1763
Vtitle
p1764
VHere comes Chicago PMI ...
p1765
sa(dp1766
Vtitle
p1767
VGDP beats
p1768
sa(dp1769
Vtitle
p1770
VPending home sales were almost flat in December
p1771
sa(dp1772
Vtitle
p1773
VCrude oil is spiking after reports that OPEC may discuss a production cut
p1774
sa(dp1775
Vtitle
p1776
VHere come initial jobless claims ...
p1777
sa(dp1778
Vtitle
p1779
VFacebook is surging
p1780
sa(dp1781
Vtitle
p1782
VCaterpillar is not expecting the global economy to get any better this year
p1783
sa(dp1784
Vtitle
p1785
VHere's a super quick guide to what traders are talking about right now (SPY, SPX, DJI, IXIC, QQQ)
p1786
sa(dp1787
Vtitle
p1788
VAlibaba crushes earnings expectations, shares soar
p1789
sa(dp1790
Vtitle
p1791
VHere comes the Fed ...
p1792
sa(dp1793
Vtitle
p1794
VThe amount of crude oil sitting in storage is almost literally off the chart
p1795
sa(dp1796
Vtitle
p1797
VApple shares are down 5%
p1798
sa(dp1799
Vtitle
p1800
VNew home sales surge more than expected
p1801
sa(dp1802
Vtitle
p1803
VFutures and oil are lower
p1804
sa(dp1805
Vtitle
p1806
VBoeing is getting slammed
p1807
sa(dp1808
Vtitle
p1809
VHere's a quick guide to what traders are talking about right now (SPY, DJI, IXIC, X, AAPL)
p1810
sa(dp1811
Vtitle
p1812
VBill Gross says you can thank Warren Buffett for Tuesday's stock market rally
p1813
sa(dp1814
Vtitle
p1815
VIt's already about March \u2014 Here's what to expect from the Fed's big statement tomorrow
p1816
sa(dp1817
Vtitle
p1818
VOprah says she's lost 26 pounds using Weight Watchers, and now the stock is rallying
p1819
sa(dp1820
Vtitle
p1821
VDow up 250
p1822
sa(dp1823
Vtitle
p1824
VConsumer confidence beats expectations
p1825
sa(dp1826
Vtitle
p1827
VHere comes Markit services PMI ...
p1828
sa(dp1829
Vtitle
p1830
VHere comes Case-Shiller ...
p1831
sa(dp1832
Vtitle
p1833
VSprint shares are exploding higher
p1834
sa(dp1835
Vtitle
p1836
V2 sentences perfectly explain how fracking overpowered the oil market and sent prices crashing
p1837
sa(dp1838
Vtitle
p1839
VThe massive layoffs in manufacturing are all about Texas
p1840
sa(dp1841
Vtitle
p1842
VTechnically, oil is in a bull market
p1843
sa(dp1844
Vtitle
p1845
VStocks are lower and oil is down 3%
p1846
sa(dp1847
Vtitle
p1848
VHere comes the Dallas Fed ...
p1849
sa(dp1850
Vtitle
p1851
VGoldman Sachs thinks a new 'commodity deflation cycle' is just beginning and Caterpillar is going to get crushed
p1852
sa(dp1853
Vtitle
p1854
VMcDonald's US sales surge, thanks to all-day breakfast
p1855
sa(dp1856
Vtitle
p1857
VHere's a super quick guide to what traders are talking about right now (SPY, DJI, IXIC, JCI, TYC)
p1858
sa(dp1859
Vtitle
p1860
VHalliburton reports a quarterly loss and continues to expect pain in the oil industry
p1861
sa(dp1862
Vtitle
p1863
VThe 10 best stock pickers you read about on the internet in 2015
p1864
sa(dp1865
Vtitle
p1866
VOnly America can save the oil market
p1867
sa(dp1868
Vtitle
p1869
VThe oil crash is crushing Houston's housing market
p1870
sa(dp1871
Vtitle
p1872
VThe bullish story for the US economy never changed
p1873
sa(dp1874
Vtitle
p1875
VHere comes the Baker Hughes rig count ...
p1876
sa(dp1877
Vtitle
p1878
VHere come existing home sales ...
p1879
sa(dp1880
Vtitle
p1881
VMarkit manufacturing PMI beats estimates
p1882
sa(dp1883
Vtitle
p1884
VAmerican Express is getting slammed
p1885
sa(dp1886
Vtitle
p1887
VFutures are roaring higher
p1888
sa(dp1889
Vtitle
p1890
VHere's a super quick guide to what traders are talking about right now (SPY, DJI, IXIC)
p1891
sa(dp1892
Vtitle
p1893
V2 stats from Boeing perfectly capture what's happening in the world economy right now
p1894
sa(dp1895
Vtitle
p1896
VOil services giant Schlumberger is buying $10 billion of itself
p1897
sa(dp1898
Vtitle
p1899
VOIL SPIKES: Here's what you need to know
p1900
sa(dp1901
Vtitle
p1902
V$30 oil is 'irrational' and a rebound is 'inevitable,' according to Saudi Arabia
p1903
sa(dp1904
Vtitle
p1905
VStocks are in the red
p1906
sa(dp1907
Vtitle
p1908
VThe euro is getting crushed
p1909
sa(dp1910
Vtitle
p1911
VHere come initial jobless claims ...
p1912
sa(dp1913
Vtitle
p1914
VHere comes CPI ...
p1915
sa(dp1916
Vtitle
p1917
VHere's a brief guide to what traders are talking about right now
p1918
sa(dp1919
Vtitle
p1920
VThe oil crash is crushing Houston's housing market
p1921
sa(dp1922
Vtitle
p1923
VHere comes homebuilder sentiment ...
p1924
sa(dp1925
Vtitle
p1926
VFutures are surging
p1927
sa(dp1928
Vtitle
p1929
VThe 10 best stock pickers you read about on the internet in 2015
p1930
sa(dp1931
Vtitle
p1932
VIf you're selling stocks because of oil, the worst is probably over
p1933
sa(dp1934
Vtitle
p1935
VEverything the world's central banks are doing in one big map
p1936
sa(dp1937
Vtitle
p1938
VOil rig count drops by one
p1939
sa(dp1940
Vtitle
p1941
VConsumer sentiment rises more than expected
p1942
sa(dp1943
Vtitle
p1944
VIndustrial production falls more than expected
p1945
sa(dp1946
Vtitle
p1947
VHere come retail sales ...
p1948
sa(dp1949
Vtitle
p1950
VHere's a super quick guide to what traders are talking about right now (SPY, DJI, IXIC)
p1951
sa(dp1952
Vtitle
p1953
VFutures are getting slammed
p1954
sa(dp1955
Vtitle
p1956
VWhile prices were crashing Warren Buffett kept increasing his bet on oil
p1957
sa(dp1958
Vtitle
p1959
VIf you're selling stocks because of oil, the worst is probably over
p1960
sa(dp1961
Vtitle
p1962
VStocks are ripping higher
p1963
sa(dp1964
Vtitle
p1965
VSTRATEGIST: There's a decent chance the US government will bail out the oil industry
p1966
sa(dp1967
Vtitle
p1968
VHere come initial jobless claims ...
p1969
sa(dp1970
Vtitle
p1971
VHere's a quick guide to what traders are talking about right now (SPY, DJI, IXIC, RNO)
p1972
sa(dp1973
Vtitle
p1974
VGoPro cuts jobs and warns its sales are a disaster
p1975
sa(dp1976
Vtitle
p1977
VGoPro cuts jobs and warns its sales are a disaster
p1978
sa(dp1979
Vtitle
p1980
VTRADER: 9 things I'm chatting about as stocks sell off
p1981
sa(dp1982
Vtitle
p1983
VStocks are getting crushed (SPY, DJI, IXIC)
p1984
sa(dp1985
Vtitle
p1986
VHere comes the Beige Book ...
p1987
sa(dp1988
Vtitle
p1989
VTwitter is crashing to new lows
p1990
sa(dp1991
Vtitle
p1992
VBarclays hacks its 2016 oil price forecast to $37 and says everything supporting a rally has disappeared
p1993
sa(dp1994
Vtitle
p1995
VEverything the world's central banks are doing right now in 1 big map
p1996
sa(dp1997
Vtitle
p1998
VUnsuccessful investing can be summed up in these 7 traits
p1999
sa(dp2000
Vtitle
p2001
VHere's what 14 Wall Street pros are predicting for the stock market in 2016
p2002
sa(dp2003
Vtitle
p2004
VGOLDMAN: These 10 themes will dominate world markets in 2016
p2005
sa(dp2006
Vtitle
p2007
VWHERE ARE THEY NOW? The 12 members of the 1896 Dow Jones Industrial Average
p2008
sa(dp2009
Vtitle
p2010
VJP MORGAN: Here's some 'ammunition' for your next dinner party
p2011
sa(dp2012
Vtitle
p2013
VHere's what Wall Street is predicting for the stock market in 2016
p2014
sa(dp2015
Vtitle
p2016
VUS oil rig count jumps
p2017
sa(dp2018
Vtitle
p2019
VPRESENTING: The 18 most controversial stocks of 2015
p2020
sa(dp2021
Vtitle
p2022
VMarkit flash services PMI falls to 12-month low
p2023
sa(dp2024
Vtitle
p2025
VFutures are lower
p2026
sa(dp2027
Vtitle
p2028
VCrude oil just keeps falling
p2029
sa(dp2030
Vtitle
p2031
VGold is getting slammed
p2032
sa(dp2033
Vtitle
p2034
VInitial jobless claims fall more than forecast
p2035
sa(dp2036
Vtitle
p2037
VWall Street's most persistent bull unveils his 6-point case for a double-digit stock market rally in 2016
p2038
sa(dp2039
Vtitle
p2040
VFedEx crushes earnings expectations, stock pops 4%
p2041
sa(dp2042
Vtitle
p2043
VSTOCKS SURGE AFTER THE FED RAISES RATES: Here's what you need to know
p2044
sa(dp2045
Vtitle
p2046
VThe Fed just raised rates, ending 7 years of crisis-era monetary policy
p2047
sa(dp2048
Vtitle
p2049
VManufacturing is still in tatters
p2050
sa(dp2051
Vtitle
p2052
VIndustrial production falls more than expected
p2053
sa(dp2054
Vtitle
p2055
VHere come housing starts ...
p2056
sa(dp2057
Vtitle
p2058
VFutures are rallying ahead of the Fed
p2059
sa(dp2060
Vtitle
p2061
VHomebuilder sentiment falls below expectations
p2062
sa(dp2063
Vtitle
p2064
VHere comes CPI ...
p2065
sa(dp2066
Vtitle
p2067
VFutures are rallying
p2068
sa(dp2069
Vtitle
p2070
VANALYST: Here's what 'President Trump' would mean for the markets
p2071
sa(dp2072
Vtitle
p2073
VGOLDMAN: Here are the 3 big changes the Fed will make this week besides raising rates
p2074
sa(dp2075
Vtitle
p2076
VUnsuccessful investing can be summed up in these 7 traits
p2077
sa(dp2078
Vtitle
p2079
VJP MORGAN: Here's some 'ammunition' for your next dinner party
p2080
sa(dp2081
Vtitle
p2082
VHere are the countries with the most generous billionaires
p2083
sa(dp2084
Vtitle
p2085
VBarron's couldn't find one person that thinks stocks would fall in 2016
p2086
sa(dp2087
Vtitle
p2088
VANALYST: There's so much hype for the new 'Star Wars' movie that it would disappoint
p2089
sa(dp2090
Vtitle
p2091
VSTOCKS GET SLAMMED : Here's what you need to know
p2092
sa(dp2093
Vtitle
p2094
VOil rig count tumbles for 4th straight week
p2095
sa(dp2096
Vtitle
p2097
VHere comes consumer confidence ...
p2098
sa(dp2099
Vtitle
p2100
VHere come retail sales ...
p2101
sa.